target datalayout = "e-m:e-p270:32:32-p271:32:32-p272:64:64-i64:64-i128:128-f80:128-n8:16:32:64-S128"
target triple = "x86_64-pc-linux-gnu"

%struct.wtap_opttype_t = type { ptr, ptr, i32, i32 }
%struct.wtap_block = type { ptr, ptr, ptr, i32 }
%struct.wtap_blocktype_t = type { i32, ptr, ptr, ptr, ptr, ptr, ptr }
%struct._GArray = type { ptr, i32 }
%struct.wtap_option_t = type { i32, %union.wtap_optval_t }
%union.wtap_optval_t = type { %struct.custom_opt_s }
%struct.custom_opt_s = type { i32, %union.anon.0 }
%union.anon.0 = type { %struct.nflx_custom_opt_data }
%struct.nflx_custom_opt_data = type { i32, i64, ptr, i8 }

; Function Attrs: nounwind null_pointer_is_valid sspstrong uwtable
define internal ptr @wtap_block_get_option(ptr noundef %0, i32 noundef %1) #2 {
  %3 = alloca ptr, align 8
  %4 = alloca ptr, align 8
  %5 = alloca i32, align 4
  %6 = alloca i32, align 4
  %7 = alloca ptr, align 8
  %8 = alloca i32, align 4
  store ptr %0, ptr %4, align 8
  store i32 %1, ptr %5, align 4
  call void @llvm.lifetime.start.p0(i64 4, ptr %6) #15
  call void @llvm.lifetime.start.p0(i64 8, ptr %7) #15
  %9 = load ptr, ptr %4, align 8
  %10 = icmp eq ptr %9, null
  br i1 %10, label %11, label %12

11:                                               ; preds = %2
  store ptr null, ptr %3, align 8
  store i32 1, ptr %8, align 4
  br label %43

12:                                               ; preds = %2
  store i32 0, ptr %6, align 4
  br label %13

13:                                               ; preds = %39, %12
  %14 = load i32, ptr %6, align 4
  %15 = load ptr, ptr %4, align 8
  %16 = getelementptr inbounds nuw %struct.wtap_block, ptr %15, i32 0, i32 2
  %17 = load ptr, ptr %16, align 8
  %18 = getelementptr inbounds nuw %struct._GArray, ptr %17, i32 0, i32 1
  %19 = load i32, ptr %18, align 8
  %20 = icmp ult i32 %14, %19
  br i1 %20, label %21, label %42

21:                                               ; preds = %13
  %22 = load ptr, ptr %4, align 8
  %23 = getelementptr inbounds nuw %struct.wtap_block, ptr %22, i32 0, i32 2
  %24 = load ptr, ptr %23, align 8
  %25 = getelementptr inbounds nuw %struct._GArray, ptr %24, i32 0, i32 0
  %26 = load ptr, ptr %25, align 8
  %27 = load i32, ptr %6, align 4
  %28 = zext i32 %27 to i64
  %29 = getelementptr %struct.wtap_option_t, ptr %26, i64 %28
  store ptr %29, ptr %7, align 8
  %30 = load ptr, ptr %7, align 8
  %31 = getelementptr inbounds nuw %struct.wtap_option_t, ptr %30, i32 0, i32 0
  %32 = load i32, ptr %31, align 8
  %33 = load i32, ptr %5, align 4
  %34 = icmp eq i32 %32, %33
  br i1 %34, label %35, label %38

35:                                               ; preds = %21
  %36 = load ptr, ptr %7, align 8
  %37 = getelementptr inbounds nuw %struct.wtap_option_t, ptr %36, i32 0, i32 1
  store ptr %37, ptr %3, align 8
  store i32 1, ptr %8, align 4
  br label %43

38:                                               ; preds = %21
  br label %39

39:                                               ; preds = %38
  %40 = load i32, ptr %6, align 4
  %41 = add i32 %40, 1
  store i32 %41, ptr %6, align 4
  br label %13, !llvm.loop !22

42:                                               ; preds = %13
  store ptr null, ptr %3, align 8
  store i32 1, ptr %8, align 4
  br label %43

43:                                               ; preds = %42, %35, %11
  call void @llvm.lifetime.end.p0(i64 8, ptr %7) #15
  call void @llvm.lifetime.end.p0(i64 4, ptr %6) #15
  %44 = load ptr, ptr %3, align 8
  ret ptr %44
}

; Function Attrs: null_pointer_is_valid sspstrong uwtable
define internal i32 @wtap_block_get_option_common(ptr noundef %0, i32 noundef %1, i32 noundef %2, ptr noundef %3) #0 {
  %5 = alloca i32, align 4
  %6 = alloca ptr, align 8
  %7 = alloca i32, align 4
  %8 = alloca i32, align 4
  %9 = alloca ptr, align 8
  %10 = alloca ptr, align 8
  %11 = alloca ptr, align 8
  %12 = alloca i32, align 4
  store ptr %0, ptr %6, align 8
  store i32 %1, ptr %7, align 4
  store i32 %2, ptr %8, align 4
  store ptr %3, ptr %9, align 8
  call void @llvm.lifetime.start.p0(i64 8, ptr %10) #15
  call void @llvm.lifetime.start.p0(i64 8, ptr %11) #15
  %13 = load ptr, ptr %6, align 8
  %14 = icmp eq ptr %13, null
  br i1 %14, label %15, label %16

15:                                               ; preds = %4
  store i32 -6, ptr %5, align 4
  store i32 1, ptr %12, align 4
  br label %53

16:                                               ; preds = %4
  %17 = load ptr, ptr %6, align 8
  %18 = getelementptr inbounds nuw %struct.wtap_block, ptr %17, i32 0, i32 0
  %19 = load ptr, ptr %18, align 8
  %20 = getelementptr inbounds nuw %struct.wtap_blocktype_t, ptr %19, i32 0, i32 6
  %21 = load ptr, ptr %20, align 8
  %22 = load i32, ptr %7, align 4
  %23 = zext i32 %22 to i64
  %24 = inttoptr i64 %23 to ptr
  %25 = call ptr @g_hash_table_lookup(ptr noundef %21, ptr noundef %24)
  store ptr %25, ptr %10, align 8
  %26 = load ptr, ptr %10, align 8
  %27 = icmp eq ptr %26, null
  br i1 %27, label %28, label %29

28:                                               ; preds = %16
  store i32 -1, ptr %5, align 4
  store i32 1, ptr %12, align 4
  br label %53

29:                                               ; preds = %16
  %30 = load ptr, ptr %10, align 8
  %31 = getelementptr inbounds nuw %struct.wtap_opttype_t, ptr %30, i32 0, i32 2
  %32 = load i32, ptr %31, align 8
  %33 = load i32, ptr %8, align 4
  %34 = icmp ne i32 %32, %33
  br i1 %34, label %35, label %36

35:                                               ; preds = %29
  store i32 -3, ptr %5, align 4
  store i32 1, ptr %12, align 4
  br label %53

36:                                               ; preds = %29
  %37 = load ptr, ptr %10, align 8
  %38 = getelementptr inbounds nuw %struct.wtap_opttype_t, ptr %37, i32 0, i32 3
  %39 = load i32, ptr %38, align 4
  %40 = and i32 %39, 1
  %41 = icmp ne i32 %40, 0
  br i1 %41, label %42, label %43

42:                                               ; preds = %36
  store i32 -4, ptr %5, align 4
  store i32 1, ptr %12, align 4
  br label %53

43:                                               ; preds = %36
  %44 = load ptr, ptr %6, align 8
  %45 = load i32, ptr %7, align 4
  %46 = call ptr @wtap_block_get_option(ptr noundef %44, i32 noundef %45)
  store ptr %46, ptr %11, align 8
  %47 = load ptr, ptr %11, align 8
  %48 = icmp eq ptr %47, null
  br i1 %48, label %49, label %50

49:                                               ; preds = %43
  store i32 -2, ptr %5, align 4
  store i32 1, ptr %12, align 4
  br label %53

50:                                               ; preds = %43
  %51 = load ptr, ptr %11, align 8
  %52 = load ptr, ptr %9, align 8
  store ptr %51, ptr %52, align 8
  store i32 0, ptr %5, align 4
  store i32 1, ptr %12, align 4
  br label %53

53:                                               ; preds = %50, %49, %42, %35, %28, %15
  call void @llvm.lifetime.end.p0(i64 8, ptr %11) #15
  call void @llvm.lifetime.end.p0(i64 8, ptr %10) #15
  %54 = load i32, ptr %5, align 4
  ret i32 %54
}

; Function Attrs: null_pointer_is_valid sspstrong uwtable
define i32 @wtap_block_set_int8_option_value(ptr noundef %0, i32 noundef %1, i8 noundef signext %2) #0 {
  %4 = alloca i32, align 4
  %5 = alloca ptr, align 8
  %6 = alloca i32, align 4
  %7 = alloca i8, align 1
  %8 = alloca i32, align 4
  %9 = alloca ptr, align 8
  %10 = alloca i32, align 4
  store ptr %0, ptr %5, align 8
  store i32 %1, ptr %6, align 4
  store i8 %2, ptr %7, align 1
  call void @llvm.lifetime.start.p0(i64 4, ptr %8) #15
  call void @llvm.lifetime.start.p0(i64 8, ptr %9) #15
  %11 = load ptr, ptr %5, align 8
  %12 = load i32, ptr %6, align 4
  %13 = call i32 @wtap_block_get_option_common(ptr noundef %11, i32 noundef %12, i32 noundef 11, ptr noundef %9)
  store i32 %13, ptr %8, align 4
  %14 = load i32, ptr %8, align 4
  %15 = icmp ne i32 %14, 0
  br i1 %15, label %16, label %18

16:                                               ; preds = %3
  %17 = load i32, ptr %8, align 4
  store i32 %17, ptr %4, align 4
  store i32 1, ptr %10, align 4
  br label %21

18:                                               ; preds = %3
  %19 = load i8, ptr %7, align 1
  %20 = load ptr, ptr %9, align 8
  store i8 %19, ptr %20, align 8
  store i32 0, ptr %4, align 4
  store i32 1, ptr %10, align 4
  br label %21

21:                                               ; preds = %18, %16
  call void @llvm.lifetime.end.p0(i64 8, ptr %9) #15
  call void @llvm.lifetime.end.p0(i64 4, ptr %8) #15
  %22 = load i32, ptr %4, align 4
  ret i32 %22
}